target datalayout = "e-m:e-p270:32:32-p271:32:32-p272:64:64-i64:64-i128:128-f80:128-n8:16:32:64-S128"
target triple = "x86_64-pc-linux-gnu"

; Function Attrs: nounwind uwtable
define ptr @l_Std_Range_forIn_x27_loop___at_Lean_Meta_Grind_Canon_canonImpl_visit___spec__10___boxed(ptr noundef %0) #2 {
  %2 = alloca ptr, align 8
  %3 = alloca ptr, align 8
  %4 = alloca ptr, align 8
  %5 = alloca ptr, align 8
  %6 = alloca ptr, align 8
  %7 = alloca ptr, align 8
  %8 = alloca ptr, align 8
  %9 = alloca ptr, align 8
  %10 = alloca ptr, align 8
  %11 = alloca ptr, align 8
  %12 = alloca ptr, align 8
  %13 = alloca ptr, align 8
  %14 = alloca ptr, align 8
  %15 = alloca ptr, align 8
  %16 = alloca ptr, align 8
  %17 = alloca ptr, align 8
  %18 = alloca ptr, align 8
  %19 = alloca ptr, align 8
  %20 = alloca ptr, align 8
  %21 = alloca ptr, align 8
  %22 = alloca ptr, align 8
  %23 = alloca ptr, align 8
  %24 = alloca ptr, align 8
  %25 = alloca ptr, align 8
  %26 = alloca ptr, align 8
  %27 = alloca ptr, align 8
  %28 = alloca ptr, align 8
  %29 = alloca ptr, align 8
  %30 = alloca ptr, align 8
  %31 = alloca ptr, align 8
  %32 = alloca ptr, align 8
  store ptr %0, ptr %2, align 8, !tbaa !10
  call void @llvm.lifetime.start.p0(i64 8, ptr %3) #7
  %33 = load ptr, ptr %2, align 8, !tbaa !10
  %34 = getelementptr inbounds ptr, ptr %33, i64 0
  %35 = load ptr, ptr %34, align 8, !tbaa !8
  store ptr %35, ptr %3, align 8, !tbaa !8
  call void @llvm.lifetime.start.p0(i64 8, ptr %4) #7
  %36 = load ptr, ptr %2, align 8, !tbaa !10
  %37 = getelementptr inbounds ptr, ptr %36, i64 1
  %38 = load ptr, ptr %37, align 8, !tbaa !8
  store ptr %38, ptr %4, align 8, !tbaa !8
  call void @llvm.lifetime.start.p0(i64 8, ptr %5) #7
  %39 = load ptr, ptr %2, align 8, !tbaa !10
  %40 = getelementptr inbounds ptr, ptr %39, i64 2
  %41 = load ptr, ptr %40, align 8, !tbaa !8
  store ptr %41, ptr %5, align 8, !tbaa !8
  call void @llvm.lifetime.start.p0(i64 8, ptr %6) #7
  %42 = load ptr, ptr %2, align 8, !tbaa !10
  %43 = getelementptr inbounds ptr, ptr %42, i64 3
  %44 = load ptr, ptr %43, align 8, !tbaa !8
  store ptr %44, ptr %6, align 8, !tbaa !8
  call void @llvm.lifetime.start.p0(i64 8, ptr %7) #7
  %45 = load ptr, ptr %2, align 8, !tbaa !10
  %46 = getelementptr inbounds ptr, ptr %45, i64 4
  %47 = load ptr, ptr %46, align 8, !tbaa !8
  store ptr %47, ptr %7, align 8, !tbaa !8
  call void @llvm.lifetime.start.p0(i64 8, ptr %8) #7
  %48 = load ptr, ptr %2, align 8, !tbaa !10
  %49 = getelementptr inbounds ptr, ptr %48, i64 5
  %50 = load ptr, ptr %49, align 8, !tbaa !8
  store ptr %50, ptr %8, align 8, !tbaa !8
  call void @llvm.lifetime.start.p0(i64 8, ptr %9) #7
  %51 = load ptr, ptr %2, align 8, !tbaa !10
  %52 = getelementptr inbounds ptr, ptr %51, i64 6
  %53 = load ptr, ptr %52, align 8, !tbaa !8
  store ptr %53, ptr %9, align 8, !tbaa !8
  call void @llvm.lifetime.start.p0(i64 8, ptr %10) #7
  %54 = load ptr, ptr %2, align 8, !tbaa !10
  %55 = getelementptr inbounds ptr, ptr %54, i64 7
  %56 = load ptr, ptr %55, align 8, !tbaa !8
  store ptr %56, ptr %10, align 8, !tbaa !8
  call void @llvm.lifetime.start.p0(i64 8, ptr %11) #7
  %57 = load ptr, ptr %2, align 8, !tbaa !10
  %58 = getelementptr inbounds ptr, ptr %57, i64 8
  %59 = load ptr, ptr %58, align 8, !tbaa !8
  store ptr %59, ptr %11, align 8, !tbaa !8
  call void @llvm.lifetime.start.p0(i64 8, ptr %12) #7
  %60 = load ptr, ptr %2, align 8, !tbaa !10
  %61 = getelementptr inbounds ptr, ptr %60, i64 9
  %62 = load ptr, ptr %61, align 8, !tbaa !8
  store ptr %62, ptr %12, align 8, !tbaa !8
  call void @llvm.lifetime.start.p0(i64 8, ptr %13) #7
  %63 = load ptr, ptr %2, align 8, !tbaa !10
  %64 = getelementptr inbounds ptr, ptr %63, i64 10
  %65 = load ptr, ptr %64, align 8, !tbaa !8
  store ptr %65, ptr %13, align 8, !tbaa !8
  call void @llvm.lifetime.start.p0(i64 8, ptr %14) #7
  %66 = load ptr, ptr %2, align 8, !tbaa !10
  %67 = getelementptr inbounds ptr, ptr %66, i64 11
  %68 = load ptr, ptr %67, align 8, !tbaa !8
  store ptr %68, ptr %14, align 8, !tbaa !8
  call void @llvm.lifetime.start.p0(i64 8, ptr %15) #7
  %69 = load ptr, ptr %2, align 8, !tbaa !10
  %70 = getelementptr inbounds ptr, ptr %69, i64 12
  %71 = load ptr, ptr %70, align 8, !tbaa !8
  store ptr %71, ptr %15, align 8, !tbaa !8
  call void @llvm.lifetime.start.p0(i64 8, ptr %16) #7
  %72 = load ptr, ptr %2, align 8, !tbaa !10
  %73 = getelementptr inbounds ptr, ptr %72, i64 13
  %74 = load ptr, ptr %73, align 8, !tbaa !8
  store ptr %74, ptr %16, align 8, !tbaa !8
  call void @llvm.lifetime.start.p0(i64 8, ptr %17) #7
  %75 = load ptr, ptr %2, align 8, !tbaa !10
  %76 = getelementptr inbounds ptr, ptr %75, i64 14
  %77 = load ptr, ptr %76, align 8, !tbaa !8
  store ptr %77, ptr %17, align 8, !tbaa !8
  call void @llvm.lifetime.start.p0(i64 8, ptr %18) #7
  %78 = load ptr, ptr %2, align 8, !tbaa !10
  %79 = getelementptr inbounds ptr, ptr %78, i64 15
  %80 = load ptr, ptr %79, align 8, !tbaa !8
  store ptr %80, ptr %18, align 8, !tbaa !8
  call void @llvm.lifetime.start.p0(i64 8, ptr %19) #7
  %81 = load ptr, ptr %2, align 8, !tbaa !10
  %82 = getelementptr inbounds ptr, ptr %81, i64 16
  %83 = load ptr, ptr %82, align 8, !tbaa !8
  store ptr %83, ptr %19, align 8, !tbaa !8
  call void @llvm.lifetime.start.p0(i64 8, ptr %20) #7
  %84 = load ptr, ptr %2, align 8, !tbaa !10
  %85 = getelementptr inbounds ptr, ptr %84, i64 17
  %86 = load ptr, ptr %85, align 8, !tbaa !8
  store ptr %86, ptr %20, align 8, !tbaa !8
  call void @llvm.lifetime.start.p0(i64 8, ptr %21) #7
  %87 = load ptr, ptr %2, align 8, !tbaa !10
  %88 = getelementptr inbounds ptr, ptr %87, i64 18
  %89 = load ptr, ptr %88, align 8, !tbaa !8
  store ptr %89, ptr %21, align 8, !tbaa !8
  call void @llvm.lifetime.start.p0(i64 8, ptr %22) #7
  %90 = load ptr, ptr %2, align 8, !tbaa !10
  %91 = getelementptr inbounds ptr, ptr %90, i64 19
  %92 = load ptr, ptr %91, align 8, !tbaa !8
  store ptr %92, ptr %22, align 8, !tbaa !8
  call void @llvm.lifetime.start.p0(i64 8, ptr %23) #7
  %93 = load ptr, ptr %2, align 8, !tbaa !10
  %94 = getelementptr inbounds ptr, ptr %93, i64 20
  %95 = load ptr, ptr %94, align 8, !tbaa !8
  store ptr %95, ptr %23, align 8, !tbaa !8
  call void @llvm.lifetime.start.p0(i64 8, ptr %24) #7
  %96 = load ptr, ptr %2, align 8, !tbaa !10
  %97 = getelementptr inbounds ptr, ptr %96, i64 21
  %98 = load ptr, ptr %97, align 8, !tbaa !8
  store ptr %98, ptr %24, align 8, !tbaa !8
  call void @llvm.lifetime.start.p0(i64 8, ptr %25) #7
  %99 = load ptr, ptr %2, align 8, !tbaa !10
  %100 = getelementptr inbounds ptr, ptr %99, i64 22
  %101 = load ptr, ptr %100, align 8, !tbaa !8
  store ptr %101, ptr %25, align 8, !tbaa !8
  call void @llvm.lifetime.start.p0(i64 8, ptr %26) #7
  %102 = load ptr, ptr %2, align 8, !tbaa !10
  %103 = getelementptr inbounds ptr, ptr %102, i64 23
  %104 = load ptr, ptr %103, align 8, !tbaa !8
  store ptr %104, ptr %26, align 8, !tbaa !8
  call void @llvm.lifetime.start.p0(i64 8, ptr %27) #7
  %105 = load ptr, ptr %2, align 8, !tbaa !10
  %106 = getelementptr inbounds ptr, ptr %105, i64 24
  %107 = load ptr, ptr %106, align 8, !tbaa !8
  store ptr %107, ptr %27, align 8, !tbaa !8
  call void @llvm.lifetime.start.p0(i64 8, ptr %28) #7
  %108 = load ptr, ptr %2, align 8, !tbaa !10
  %109 = getelementptr inbounds ptr, ptr %108, i64 25
  %110 = load ptr, ptr %109, align 8, !tbaa !8
  store ptr %110, ptr %28, align 8, !tbaa !8
  call void @llvm.lifetime.start.p0(i64 8, ptr %29) #7
  %111 = load ptr, ptr %2, align 8, !tbaa !10
  %112 = getelementptr inbounds ptr, ptr %111, i64 26
  %113 = load ptr, ptr %112, align 8, !tbaa !8
  store ptr %113, ptr %29, align 8, !tbaa !8
  call void @llvm.lifetime.start.p0(i64 8, ptr %30) #7
  %114 = load ptr, ptr %2, align 8, !tbaa !10
  %115 = getelementptr inbounds ptr, ptr %114, i64 27
  %116 = load ptr, ptr %115, align 8, !tbaa !8
  store ptr %116, ptr %30, align 8, !tbaa !8
  call void @llvm.lifetime.start.p0(i64 8, ptr %31) #7
  %117 = load ptr, ptr %2, align 8, !tbaa !10
  %118 = getelementptr inbounds ptr, ptr %117, i64 28
  %119 = load ptr, ptr %118, align 8, !tbaa !8
  store ptr %119, ptr %31, align 8, !tbaa !8
  br label %120

120:                                              ; preds = %1
  call void @llvm.lifetime.start.p0(i64 8, ptr %32) #7
  %121 = load ptr, ptr %3, align 8, !tbaa !8
  %122 = load ptr, ptr %4, align 8, !tbaa !8
  %123 = load ptr, ptr %5, align 8, !tbaa !8
  %124 = load ptr, ptr %6, align 8, !tbaa !8
  %125 = load ptr, ptr %7, align 8, !tbaa !8
  %126 = load ptr, ptr %8, align 8, !tbaa !8
  %127 = load ptr, ptr %9, align 8, !tbaa !8
  %128 = load ptr, ptr %10, align 8, !tbaa !8
  %129 = load ptr, ptr %11, align 8, !tbaa !8
  %130 = load ptr, ptr %12, align 8, !tbaa !8
  %131 = load ptr, ptr %13, align 8, !tbaa !8
  %132 = load ptr, ptr %14, align 8, !tbaa !8
  %133 = load ptr, ptr %15, align 8, !tbaa !8
  %134 = load ptr, ptr %16, align 8, !tbaa !8
  %135 = load ptr, ptr %17, align 8, !tbaa !8
  %136 = load ptr, ptr %18, align 8, !tbaa !8
  %137 = load ptr, ptr %19, align 8, !tbaa !8
  %138 = load ptr, ptr %20, align 8, !tbaa !8
  %139 = load ptr, ptr %21, align 8, !tbaa !8
  %140 = load ptr, ptr %22, align 8, !tbaa !8
  %141 = load ptr, ptr %23, align 8, !tbaa !8
  %142 = load ptr, ptr %24, align 8, !tbaa !8
  %143 = load ptr, ptr %25, align 8, !tbaa !8
  %144 = load ptr, ptr %26, align 8, !tbaa !8
  %145 = load ptr, ptr %27, align 8, !tbaa !8
  %146 = load ptr, ptr %28, align 8, !tbaa !8
  %147 = load ptr, ptr %29, align 8, !tbaa !8
  %148 = load ptr, ptr %30, align 8, !tbaa !8
  %149 = load ptr, ptr %31, align 8, !tbaa !8
  %150 = call ptr @l_Std_Range_forIn_x27_loop___at_Lean_Meta_Grind_Canon_canonImpl_visit___spec__10(ptr noundef %121, ptr noundef %122, ptr noundef %123, ptr noundef %124, ptr noundef %125, ptr noundef %126, ptr noundef %127, ptr noundef %128, ptr noundef %129, ptr noundef %130, ptr noundef %131, ptr noundef %132, ptr noundef %133, ptr noundef %134, ptr noundef %135, ptr noundef %136, ptr noundef %137, ptr noundef %138, ptr noundef %139, ptr noundef %140, ptr noundef %141, ptr noundef %142, ptr noundef %143, ptr noundef %144, ptr noundef %145, ptr noundef %146, ptr noundef %147, ptr noundef %148, ptr noundef %149)
  store ptr %150, ptr %32, align 8, !tbaa !8
  %151 = load ptr, ptr %32, align 8, !tbaa !8
  call void @llvm.lifetime.end.p0(i64 8, ptr %32) #7
  call void @llvm.lifetime.end.p0(i64 8, ptr %31) #7
  call void @llvm.lifetime.end.p0(i64 8, ptr %30) #7
  call void @llvm.lifetime.end.p0(i64 8, ptr %29) #7
  call void @llvm.lifetime.end.p0(i64 8, ptr %28) #7
  call void @llvm.lifetime.end.p0(i64 8, ptr %27) #7
  call void @llvm.lifetime.end.p0(i64 8, ptr %26) #7
  call void @llvm.lifetime.end.p0(i64 8, ptr %25) #7
  call void @llvm.lifetime.end.p0(i64 8, ptr %24) #7
  call void @llvm.lifetime.end.p0(i64 8, ptr %23) #7
  call void @llvm.lifetime.end.p0(i64 8, ptr %22) #7
  call void @llvm.lifetime.end.p0(i64 8, ptr %21) #7
  call void @llvm.lifetime.end.p0(i64 8, ptr %20) #7
  call void @llvm.lifetime.end.p0(i64 8, ptr %19) #7
  call void @llvm.lifetime.end.p0(i64 8, ptr %18) #7
  call void @llvm.lifetime.end.p0(i64 8, ptr %17) #7
  call void @llvm.lifetime.end.p0(i64 8, ptr %16) #7
  call void @llvm.lifetime.end.p0(i64 8, ptr %15) #7
  call void @llvm.lifetime.end.p0(i64 8, ptr %14) #7
  call void @llvm.lifetime.end.p0(i64 8, ptr %13) #7
  call void @llvm.lifetime.end.p0(i64 8, ptr %12) #7
  call void @llvm.lifetime.end.p0(i64 8, ptr %11) #7
  call void @llvm.lifetime.end.p0(i64 8, ptr %10) #7
  call void @llvm.lifetime.end.p0(i64 8, ptr %9) #7
  call void @llvm.lifetime.end.p0(i64 8, ptr %8) #7
  call void @llvm.lifetime.end.p0(i64 8, ptr %7) #7
  call void @llvm.lifetime.end.p0(i64 8, ptr %6) #7
  call void @llvm.lifetime.end.p0(i64 8, ptr %5) #7
  call void @llvm.lifetime.end.p0(i64 8, ptr %4) #7
  call void @llvm.lifetime.end.p0(i64 8, ptr %3) #7
  ret ptr %151
}