; Function Attrs: nounwind uwtable
define ptr @l_Std_Range_forIn_x27_loop___at_Lean_Meta_Grind_Canon_canonImpl_visit___spec__10___boxed(ptr noundef readonly captures(none) %0) local_unnamed_addr #1 {
  %2 = load ptr, ptr %0, align 8, !tbaa !9
  %3 = getelementptr inbounds nuw i8, ptr %0, i64 8
  %4 = load ptr, ptr %3, align 8, !tbaa !9
  %5 = getelementptr inbounds nuw i8, ptr %0, i64 16
  %6 = load ptr, ptr %5, align 8, !tbaa !9
  %7 = getelementptr inbounds nuw i8, ptr %0, i64 24
  %8 = load ptr, ptr %7, align 8, !tbaa !9
  %9 = getelementptr inbounds nuw i8, ptr %0, i64 32
  %10 = load ptr, ptr %9, align 8, !tbaa !9
  %11 = getelementptr inbounds nuw i8, ptr %0, i64 40
  %12 = load ptr, ptr %11, align 8, !tbaa !9
  %13 = getelementptr inbounds nuw i8, ptr %0, i64 48
  %14 = load ptr, ptr %13, align 8, !tbaa !9
  %15 = getelementptr inbounds nuw i8, ptr %0, i64 56
  %16 = load ptr, ptr %15, align 8, !tbaa !9
  %17 = getelementptr inbounds nuw i8, ptr %0, i64 64
  %18 = load ptr, ptr %17, align 8, !tbaa !9
  %19 = getelementptr inbounds nuw i8, ptr %0, i64 72
  %20 = load ptr, ptr %19, align 8, !tbaa !9
  %21 = getelementptr inbounds nuw i8, ptr %0, i64 80
  %22 = load ptr, ptr %21, align 8, !tbaa !9
  %23 = getelementptr inbounds nuw i8, ptr %0, i64 88
  %24 = load ptr, ptr %23, align 8, !tbaa !9
  %25 = getelementptr inbounds nuw i8, ptr %0, i64 96
  %26 = load ptr, ptr %25, align 8, !tbaa !9
  %27 = getelementptr inbounds nuw i8, ptr %0, i64 104
  %28 = load ptr, ptr %27, align 8, !tbaa !9
  %29 = getelementptr inbounds nuw i8, ptr %0, i64 112
  %30 = load ptr, ptr %29, align 8, !tbaa !9
  %31 = getelementptr inbounds nuw i8, ptr %0, i64 120
  %32 = load ptr, ptr %31, align 8, !tbaa !9
  %33 = getelementptr inbounds nuw i8, ptr %0, i64 128
  %34 = load ptr, ptr %33, align 8, !tbaa !9
  %35 = getelementptr inbounds nuw i8, ptr %0, i64 152
  %36 = load ptr, ptr %35, align 8, !tbaa !9
  %37 = getelementptr inbounds nuw i8, ptr %0, i64 160
  %38 = load ptr, ptr %37, align 8, !tbaa !9
  %39 = getelementptr inbounds nuw i8, ptr %0, i64 168
  %40 = load ptr, ptr %39, align 8, !tbaa !9
  %41 = getelementptr inbounds nuw i8, ptr %0, i64 176
  %42 = load ptr, ptr %41, align 8, !tbaa !9
  %43 = getelementptr inbounds nuw i8, ptr %0, i64 184
  %44 = load ptr, ptr %43, align 8, !tbaa !9
  %45 = getelementptr inbounds nuw i8, ptr %0, i64 192
  %46 = load ptr, ptr %45, align 8, !tbaa !9
  %47 = getelementptr inbounds nuw i8, ptr %0, i64 200
  %48 = load ptr, ptr %47, align 8, !tbaa !9
  %49 = getelementptr inbounds nuw i8, ptr %0, i64 208
  %50 = load ptr, ptr %49, align 8, !tbaa !9
  %51 = getelementptr inbounds nuw i8, ptr %0, i64 216
  %52 = load ptr, ptr %51, align 8, !tbaa !9
  %53 = getelementptr inbounds nuw i8, ptr %0, i64 224
  %54 = load ptr, ptr %53, align 8, !tbaa !9
  %55 = tail call ptr @l_Std_Range_forIn_x27_loop___at_Lean_Meta_Grind_Canon_canonImpl_visit___spec__10(ptr noundef %2, ptr noundef %4, ptr noundef %6, ptr noundef %8, ptr noundef %10, ptr noundef %12, ptr noundef %14, ptr noundef %16, ptr noundef %18, ptr noundef %20, ptr noundef %22, ptr noundef %24, ptr noundef %26, ptr noundef %28, ptr noundef %30, ptr noundef %32, ptr noundef %34, ptr poison, ptr poison, ptr noundef %36, ptr noundef %38, ptr noundef %40, ptr noundef %42, ptr noundef %44, ptr noundef %46, ptr noundef %48, ptr noundef %50, ptr noundef %52, ptr noundef %54)
  ret ptr %55
}